target datalayout = "e-m:e-p270:32:32-p271:32:32-p272:64:64-i64:64-i128:128-f80:128-n8:16:32:64-S128"
target triple = "x86_64-pc-linux-gnu"

@.str = private unnamed_addr constant [34 x i8] c"../openssl/crypto/cms/cms_smime.c\00", align 1
@__func__.CMS_EncryptedData_decrypt = private unnamed_addr constant [26 x i8] c"CMS_EncryptedData_decrypt\00", align 1
@__func__.check_content = private unnamed_addr constant [14 x i8] c"check_content\00", align 1

; Function Attrs: nounwind uwtable
define internal void @do_free_upto(ptr noundef %0, ptr noundef %1) #0 {
  %3 = alloca ptr, align 8
  %4 = alloca ptr, align 8
  %5 = alloca ptr, align 8
  store ptr %0, ptr %3, align 8, !tbaa !8
  store ptr %1, ptr %4, align 8, !tbaa !8
  %6 = load ptr, ptr %4, align 8, !tbaa !8
  %7 = icmp ne ptr %6, null
  br i1 %7, label %8, label %25

8:                                                ; preds = %2
  call void @llvm.lifetime.start.p0(i64 8, ptr %5) #4
  br label %9

9:                                                ; preds = %22, %8
  %10 = load ptr, ptr %3, align 8, !tbaa !8
  %11 = call ptr @BIO_pop(ptr noundef %10)
  store ptr %11, ptr %5, align 8, !tbaa !8
  %12 = load ptr, ptr %3, align 8, !tbaa !8
  %13 = call i32 @BIO_free(ptr noundef %12)
  %14 = load ptr, ptr %5, align 8, !tbaa !8
  store ptr %14, ptr %3, align 8, !tbaa !8
  br label %15

15:                                               ; preds = %9
  %16 = load ptr, ptr %3, align 8, !tbaa !8
  %17 = icmp ne ptr %16, null
  br i1 %17, label %18, label %22

18:                                               ; preds = %15
  %19 = load ptr, ptr %3, align 8, !tbaa !8
  %20 = load ptr, ptr %4, align 8, !tbaa !8
  %21 = icmp ne ptr %19, %20
  br label %22

22:                                               ; preds = %18, %15
  %23 = phi i1 [ false, %15 ], [ %21, %18 ]
  br i1 %23, label %9, label %24, !llvm.loop !20

24:                                               ; preds = %22
  call void @llvm.lifetime.end.p0(i64 8, ptr %5) #4
  br label %27

25:                                               ; preds = %2
  %26 = load ptr, ptr %3, align 8, !tbaa !8
  call void @BIO_free_all(ptr noundef %26)
  br label %27

27:                                               ; preds = %25, %24
  ret void
}

; Function Attrs: nounwind uwtable
define internal i32 @check_content(ptr noundef %0) #0 {
  %2 = alloca i32, align 4
  %3 = alloca ptr, align 8
  %4 = alloca ptr, align 8
  %5 = alloca i32, align 4
  store ptr %0, ptr %3, align 8, !tbaa !3
  call void @llvm.lifetime.start.p0(i64 8, ptr %4) #4
  %6 = load ptr, ptr %3, align 8, !tbaa !3
  %7 = call ptr @CMS_get0_content(ptr noundef %6)
  store ptr %7, ptr %4, align 8, !tbaa !16
  %8 = load ptr, ptr %4, align 8, !tbaa !16
  %9 = icmp eq ptr %8, null
  br i1 %9, label %14, label %10

10:                                               ; preds = %1
  %11 = load ptr, ptr %4, align 8, !tbaa !16
  %12 = load ptr, ptr %11, align 8, !tbaa !18
  %13 = icmp eq ptr %12, null
  br i1 %13, label %14, label %15

14:                                               ; preds = %10, %1
  call void @ERR_new()
  call void @ERR_set_debug(ptr noundef @.str, i32 noundef 84, ptr noundef @__func__.check_content)
  call void (i32, i32, ptr, ...) @ERR_set_error(i32 noundef 46, i32 noundef 127, ptr noundef null)
  store i32 0, ptr %2, align 4
  store i32 1, ptr %5, align 4
  br label %16

15:                                               ; preds = %10
  store i32 1, ptr %2, align 4
  store i32 1, ptr %5, align 4
  br label %16

16:                                               ; preds = %15, %14
  call void @llvm.lifetime.end.p0(i64 8, ptr %4) #4
  %17 = load i32, ptr %2, align 4
  ret i32 %17
}

; Function Attrs: nounwind uwtable
define i32 @CMS_EncryptedData_decrypt(ptr noundef %0, ptr noundef %1, i64 noundef %2, ptr noundef %3, ptr noundef %4, i32 noundef %5) #0 {
  %7 = alloca i32, align 4
  %8 = alloca ptr, align 8
  %9 = alloca ptr, align 8
  %10 = alloca i64, align 8
  %11 = alloca ptr, align 8
  %12 = alloca ptr, align 8
  %13 = alloca i32, align 4
  %14 = alloca ptr, align 8
  %15 = alloca i32, align 4
  %16 = alloca i32, align 4
  store ptr %0, ptr %8, align 8, !tbaa !3
  store ptr %1, ptr %9, align 8, !tbaa !14
  store i64 %2, ptr %10, align 8, !tbaa !24
  store ptr %3, ptr %11, align 8, !tbaa !8
  store ptr %4, ptr %12, align 8, !tbaa !8
  store i32 %5, ptr %13, align 4, !tbaa !10
  call void @llvm.lifetime.start.p0(i64 8, ptr %14) #4
  call void @llvm.lifetime.start.p0(i64 4, ptr %15) #4
  %17 = load ptr, ptr %8, align 8, !tbaa !3
  %18 = call ptr @CMS_get0_type(ptr noundef %17)
  %19 = call i32 @OBJ_obj2nid(ptr noundef %18)
  %20 = icmp ne i32 %19, 26
  br i1 %20, label %21, label %22

21:                                               ; preds = %6
  call void @ERR_new()
  call void @ERR_set_debug(ptr noundef @.str, i32 noundef 207, ptr noundef @__func__.CMS_EncryptedData_decrypt)
  call void (i32, i32, ptr, ...) @ERR_set_error(i32 noundef 46, i32 noundef 145, ptr noundef null)
  store i32 0, ptr %7, align 4
  store i32 1, ptr %16, align 4
  br label %52

22:                                               ; preds = %6
  %23 = load ptr, ptr %11, align 8, !tbaa !8
  %24 = icmp eq ptr %23, null
  br i1 %24, label %25, label %30

25:                                               ; preds = %22
  %26 = load ptr, ptr %8, align 8, !tbaa !3
  %27 = call i32 @check_content(ptr noundef %26)
  %28 = icmp ne i32 %27, 0
  br i1 %28, label %30, label %29

29:                                               ; preds = %25
  store i32 0, ptr %7, align 4
  store i32 1, ptr %16, align 4
  br label %52

30:                                               ; preds = %25, %22
  %31 = load ptr, ptr %8, align 8, !tbaa !3
  %32 = load ptr, ptr %9, align 8, !tbaa !14
  %33 = load i64, ptr %10, align 8, !tbaa !24
  %34 = call i32 @CMS_EncryptedData_set1_key(ptr noundef %31, ptr noundef null, ptr noundef %32, i64 noundef %33)
  %35 = icmp sle i32 %34, 0
  br i1 %35, label %36, label %37

36:                                               ; preds = %30
  store i32 0, ptr %7, align 4
  store i32 1, ptr %16, align 4
  br label %52

37:                                               ; preds = %30
  %38 = load ptr, ptr %8, align 8, !tbaa !3
  %39 = load ptr, ptr %11, align 8, !tbaa !8
  %40 = call ptr @CMS_dataInit(ptr noundef %38, ptr noundef %39)
  store ptr %40, ptr %14, align 8, !tbaa !8
  %41 = load ptr, ptr %14, align 8, !tbaa !8
  %42 = icmp eq ptr %41, null
  br i1 %42, label %43, label %44

43:                                               ; preds = %37
  store i32 0, ptr %7, align 4
  store i32 1, ptr %16, align 4
  br label %52

44:                                               ; preds = %37
  %45 = load ptr, ptr %12, align 8, !tbaa !8
  %46 = load ptr, ptr %14, align 8, !tbaa !8
  %47 = load i32, ptr %13, align 4, !tbaa !10
  %48 = call i32 @cms_copy_content(ptr noundef %45, ptr noundef %46, i32 noundef %47)
  store i32 %48, ptr %15, align 4, !tbaa !10
  %49 = load ptr, ptr %14, align 8, !tbaa !8
  %50 = load ptr, ptr %11, align 8, !tbaa !8
  call void @do_free_upto(ptr noundef %49, ptr noundef %50)
  %51 = load i32, ptr %15, align 4, !tbaa !10
  store i32 %51, ptr %7, align 4
  store i32 1, ptr %16, align 4
  br label %52

52:                                               ; preds = %44, %43, %36, %29, %21
  call void @llvm.lifetime.end.p0(i64 4, ptr %15) #4
  call void @llvm.lifetime.end.p0(i64 8, ptr %14) #4
  %53 = load i32, ptr %7, align 4
  ret i32 %53
}