; Function Attrs: nounwind uwtable
define range(i32 0, 2) i32 @CMS_EncryptedData_decrypt(ptr noundef %0, ptr noundef %1, i64 noundef %2, ptr noundef %3, ptr noundef %4, i32 noundef %5) local_unnamed_addr #0 {
  %7 = tail call ptr @CMS_get0_type(ptr noundef %0) #4
  %8 = tail call i32 @OBJ_obj2nid(ptr noundef %7) #4
  %.not = icmp eq i32 %8, 26
  br i1 %.not, label %10, label %9

9:                                                ; preds = %6
  tail call void @ERR_new() #4
  tail call void @ERR_set_debug(ptr noundef nonnull @.str, i32 noundef 207, ptr noundef nonnull @__func__.CMS_EncryptedData_decrypt) #4
  tail call void (i32, i32, ptr, ...) @ERR_set_error(i32 noundef 46, i32 noundef 145, ptr noundef null) #4
  br label %do_free_upto.exit

10:                                               ; preds = %6
  %11 = icmp eq ptr %3, null
  br i1 %11, label %12, label %check_content.exit

12:                                               ; preds = %10
  %13 = tail call ptr @CMS_get0_content(ptr noundef %0) #4
  %14 = icmp eq ptr %13, null
  br i1 %14, label %check_content.exit.thread, label %15

15:                                               ; preds = %12
  %16 = load ptr, ptr %13, align 8, !tbaa !5
  %17 = icmp eq ptr %16, null
  br i1 %17, label %check_content.exit.thread, label %check_content.exit

check_content.exit.thread:                        ; preds = %12, %15
  tail call void @ERR_new() #4
  tail call void @ERR_set_debug(ptr noundef nonnull @.str, i32 noundef 84, ptr noundef nonnull @__func__.check_content) #4
  tail call void (i32, i32, ptr, ...) @ERR_set_error(i32 noundef 46, i32 noundef 127, ptr noundef null) #4
  br label %do_free_upto.exit

check_content.exit:                               ; preds = %15, %10
  %18 = tail call i32 @CMS_EncryptedData_set1_key(ptr noundef %0, ptr noundef null, ptr noundef %1, i64 noundef %2) #4
  %19 = icmp slt i32 %18, 1
  br i1 %19, label %do_free_upto.exit, label %20

20:                                               ; preds = %check_content.exit
  %21 = tail call ptr @CMS_dataInit(ptr noundef %0, ptr noundef %3) #4
  %22 = icmp eq ptr %21, null
  br i1 %22, label %do_free_upto.exit, label %23

23:                                               ; preds = %20
  %24 = tail call fastcc i32 @cms_copy_content(ptr noundef %4, ptr noundef %21, i32 noundef %5)
  br i1 %11, label %30, label %.preheader.i

.preheader.i:                                     ; preds = %23, %.preheader.i
  %.0.i17 = phi ptr [ %25, %.preheader.i ], [ %21, %23 ]
  %25 = tail call ptr @BIO_pop(ptr noundef nonnull %.0.i17) #4
  %26 = tail call i32 @BIO_free(ptr noundef nonnull %.0.i17) #4
  %27 = icmp ne ptr %25, null
  %28 = icmp ne ptr %25, %3
  %29 = and i1 %27, %28
  br i1 %29, label %.preheader.i, label %do_free_upto.exit, !llvm.loop !3

30:                                               ; preds = %23
  tail call void @BIO_free_all(ptr noundef nonnull %21) #4
  br label %do_free_upto.exit

do_free_upto.exit:                                ; preds = %.preheader.i, %30, %check_content.exit.thread, %20, %check_content.exit, %9
  %.0 = phi i32 [ 0, %9 ], [ 0, %check_content.exit ], [ 0, %20 ], [ 0, %check_content.exit.thread ], [ %24, %30 ], [ %24, %.preheader.i ]
  ret i32 %.0
}